target datalayout = "e-m:e-p270:32:32-p271:32:32-p272:64:64-i64:64-i128:128-f80:128-n8:16:32:64-S128"
target triple = "x86_64-pc-linux-gnu"

@.str.6 = private unnamed_addr constant [3 x i8] c"wb\00", align 1
@.str.7 = private unnamed_addr constant [15 x i8] c"PF\0A%d %d\0A-1.0\0A\00", align 1

; Function Attrs: inlinehint nounwind uwtable
define internal ptr @dt_alloc_align_float(i64 noundef %0) #5 {
  %2 = alloca i64, align 8
  store i64 %0, ptr %2, align 8, !tbaa !23
  %3 = load i64, ptr %2, align 8, !tbaa !23
  %4 = mul i64 %3, 4
  %5 = call ptr @dt_alloc_aligned(i64 noundef %4)
  call void @llvm.assume(i1 true) [ "align"(ptr %5, i64 64) ]
  ret ptr %5
}

; Function Attrs: nounwind uwtable
define dso_local void @write_pfm(ptr noundef %0, i32 noundef %1, i32 noundef %2, ptr noundef %3) #0 {
  %5 = alloca ptr, align 8
  %6 = alloca i32, align 4
  %7 = alloca i32, align 4
  %8 = alloca ptr, align 8
  %9 = alloca ptr, align 8
  %10 = alloca ptr, align 8
  %11 = alloca i32, align 4
  %12 = alloca i32, align 4
  %13 = alloca i32, align 4
  %14 = alloca ptr, align 8
  %15 = alloca ptr, align 8
  %16 = alloca i32, align 4
  %17 = alloca i32, align 4
  store ptr %0, ptr %5, align 8, !tbaa !7
  store i32 %1, ptr %6, align 4, !tbaa !16
  store i32 %2, ptr %7, align 4, !tbaa !16
  store ptr %3, ptr %8, align 8, !tbaa !21
  call void @llvm.lifetime.start.p0(i64 8, ptr %9) #10
  %18 = load ptr, ptr %5, align 8, !tbaa !7
  %19 = call noalias ptr @fopen(ptr noundef %18, ptr noundef @.str.6)
  store ptr %19, ptr %9, align 8, !tbaa !14
  %20 = load ptr, ptr %9, align 8, !tbaa !14
  %21 = icmp ne ptr %20, null
  br i1 %21, label %22, label %88

22:                                               ; preds = %4
  %23 = load ptr, ptr %9, align 8, !tbaa !14
  %24 = load i32, ptr %6, align 4, !tbaa !16
  %25 = load i32, ptr %7, align 4, !tbaa !16
  %26 = call i32 (ptr, ptr, ...) @fprintf(ptr noundef %23, ptr noundef @.str.7, i32 noundef %24, i32 noundef %25) #10
  call void @llvm.lifetime.start.p0(i64 8, ptr %10) #10
  %27 = load i32, ptr %6, align 4, !tbaa !16
  %28 = sext i32 %27 to i64
  %29 = mul i64 3, %28
  %30 = call ptr @dt_alloc_align_float(i64 noundef %29)
  store ptr %30, ptr %10, align 8, !tbaa !27
  call void @llvm.lifetime.start.p0(i64 4, ptr %11) #10
  store i32 0, ptr %11, align 4, !tbaa !16
  br label %31

31:                                               ; preds = %80, %22
  %32 = load i32, ptr %11, align 4, !tbaa !16
  %33 = load i32, ptr %7, align 4, !tbaa !16
  %34 = icmp slt i32 %32, %33
  br i1 %34, label %36, label %35

35:                                               ; preds = %31
  store i32 2, ptr %12, align 4
  br label %83

36:                                               ; preds = %31
  call void @llvm.lifetime.start.p0(i64 4, ptr %13) #10
  %37 = load i32, ptr %7, align 4, !tbaa !16
  %38 = sub nsw i32 %37, 1
  %39 = load i32, ptr %11, align 4, !tbaa !16
  %40 = sub nsw i32 %38, %39
  store i32 %40, ptr %13, align 4, !tbaa !16
  call void @llvm.lifetime.start.p0(i64 8, ptr %14) #10
  %41 = load ptr, ptr %8, align 8, !tbaa !21
  %42 = load i32, ptr %6, align 4, !tbaa !16
  %43 = sext i32 %42 to i64
  %44 = mul i64 3, %43
  %45 = load i32, ptr %13, align 4, !tbaa !16
  %46 = sext i32 %45 to i64
  %47 = mul i64 %44, %46
  %48 = getelementptr inbounds nuw float, ptr %41, i64 %47
  store ptr %48, ptr %14, align 8, !tbaa !21
  call void @llvm.lifetime.start.p0(i64 8, ptr %15) #10
  %49 = load ptr, ptr %10, align 8, !tbaa !27
  store ptr %49, ptr %15, align 8, !tbaa !21
  call void @llvm.lifetime.start.p0(i64 4, ptr %16) #10
  store i32 0, ptr %16, align 4, !tbaa !16
  br label %50

50:                                               ; preds = %58, %36
  %51 = load i32, ptr %16, align 4, !tbaa !16
  %52 = load i32, ptr %6, align 4, !tbaa !16
  %53 = icmp slt i32 %51, %52
  br i1 %53, label %55, label %54

54:                                               ; preds = %50
  store i32 5, ptr %12, align 4
  call void @llvm.lifetime.end.p0(i64 4, ptr %16) #10
  br label %65

55:                                               ; preds = %50
  %56 = load ptr, ptr %15, align 8, !tbaa !21
  %57 = load ptr, ptr %14, align 8, !tbaa !21
  call void @llvm.memcpy.p0.p0.i64(ptr align 4 %56, ptr align 4 %57, i64 12, i1 false)
  br label %58

58:                                               ; preds = %55
  %59 = load i32, ptr %16, align 4, !tbaa !16
  %60 = add nsw i32 %59, 1
  store i32 %60, ptr %16, align 4, !tbaa !16
  %61 = load ptr, ptr %14, align 8, !tbaa !21
  %62 = getelementptr inbounds float, ptr %61, i64 3
  store ptr %62, ptr %14, align 8, !tbaa !21
  %63 = load ptr, ptr %15, align 8, !tbaa !21
  %64 = getelementptr inbounds float, ptr %63, i64 3
  store ptr %64, ptr %15, align 8, !tbaa !21
  br label %50

65:                                               ; preds = %54
  call void @llvm.lifetime.start.p0(i64 4, ptr %17) #10
  %66 = load ptr, ptr %10, align 8, !tbaa !27
  %67 = load i32, ptr %6, align 4, !tbaa !16
  %68 = sext i32 %67 to i64
  %69 = load ptr, ptr %9, align 8, !tbaa !14
  %70 = call i64 @fwrite(ptr noundef %66, i64 noundef 12, i64 noundef %68, ptr noundef %69)
  %71 = trunc i64 %70 to i32
  store i32 %71, ptr %17, align 4, !tbaa !16
  %72 = load i32, ptr %17, align 4, !tbaa !16
  %73 = load i32, ptr %6, align 4, !tbaa !16
  %74 = icmp ne i32 %72, %73
  br i1 %74, label %75, label %76

75:                                               ; preds = %65
  store i32 2, ptr %12, align 4
  br label %77

76:                                               ; preds = %65
  store i32 0, ptr %12, align 4
  br label %77

77:                                               ; preds = %76, %75
  call void @llvm.lifetime.end.p0(i64 4, ptr %17) #10
  call void @llvm.lifetime.end.p0(i64 8, ptr %15) #10
  call void @llvm.lifetime.end.p0(i64 8, ptr %14) #10
  call void @llvm.lifetime.end.p0(i64 4, ptr %13) #10
  %78 = load i32, ptr %12, align 4
  switch i32 %78, label %83 [
    i32 0, label %79
  ]

79:                                               ; preds = %77
  br label %80

80:                                               ; preds = %79
  %81 = load i32, ptr %11, align 4, !tbaa !16
  %82 = add nsw i32 %81, 1
  store i32 %82, ptr %11, align 4, !tbaa !16
  br label %31

83:                                               ; preds = %77, %35
  call void @llvm.lifetime.end.p0(i64 4, ptr %11) #10
  br label %84

84:                                               ; preds = %83
  %85 = load ptr, ptr %10, align 8, !tbaa !27
  call void @free(ptr noundef %85) #10
  store ptr null, ptr %10, align 8, !tbaa !27
  %86 = load ptr, ptr %9, align 8, !tbaa !14
  %87 = call i32 @fclose(ptr noundef %86)
  call void @llvm.lifetime.end.p0(i64 8, ptr %10) #10
  br label %88

88:                                               ; preds = %84, %4
  call void @llvm.lifetime.end.p0(i64 8, ptr %9) #10
  ret void
}