; Function Attrs: nounwind uwtable
define dso_local void @write_pfm(ptr noundef readonly captures(none) %0, i32 noundef %1, i32 noundef %2, ptr noundef readonly captures(none) %3) local_unnamed_addr #0 {
  %5 = tail call noalias ptr @fopen(ptr noundef %0, ptr noundef nonnull @.str.6)
  %.not = icmp eq ptr %5, null
  br i1 %.not, label %31, label %6

6:                                                ; preds = %4
  %7 = tail call i32 (ptr, ptr, ...) @fprintf(ptr noundef nonnull %5, ptr noundef nonnull @.str.7, i32 noundef %1, i32 noundef %2) #10
  %8 = sext i32 %1 to i64
  %9 = mul nsw i64 %8, 3
  %10 = mul nsw i64 %8, 12
  %11 = tail call ptr @dt_alloc_aligned(i64 noundef %10) #10
  call void @llvm.assume(i1 true) [ "align"(ptr %11, i64 64) ]
  %12 = icmp sgt i32 %2, 0
  br i1 %12, label %.lr.ph42, label %._crit_edge43

.lr.ph42:                                         ; preds = %6
  %13 = icmp sgt i32 %1, 0
  br i1 %13, label %.lr.ph.us.preheader, label %.lr.ph42.split

.lr.ph.us.preheader:                              ; preds = %.lr.ph42
  %14 = zext nneg i32 %2 to i64
  br label %.lr.ph.us

.lr.ph.us:                                        ; preds = %.lr.ph.us.preheader, %._crit_edge.us
  %indvars.iv = phi i64 [ 0, %.lr.ph.us.preheader ], [ %indvars.iv.next, %._crit_edge.us ]
  %15 = xor i64 %indvars.iv, -1
  %16 = add nsw i64 %14, %15
  %17 = mul i64 %9, %16
  %18 = getelementptr inbounds nuw float, ptr %3, i64 %17
  br label %19

19:                                               ; preds = %.lr.ph.us, %19
  %.039.us = phi i32 [ 0, %.lr.ph.us ], [ %20, %19 ]
  %.02938.us = phi ptr [ %11, %.lr.ph.us ], [ %22, %19 ]
  %.03037.us = phi ptr [ %18, %.lr.ph.us ], [ %21, %19 ]
  tail call void @llvm.memcpy.p0.p0.i64(ptr noundef nonnull align 4 dereferenceable(12) %.02938.us, ptr noundef nonnull align 4 dereferenceable(12) %.03037.us, i64 12, i1 false)
  %20 = add nuw nsw i32 %.039.us, 1
  %21 = getelementptr inbounds nuw i8, ptr %.03037.us, i64 12
  %22 = getelementptr inbounds nuw i8, ptr %.02938.us, i64 12
  %exitcond.not = icmp eq i32 %20, %1
  br i1 %exitcond.not, label %._crit_edge.us, label %19

._crit_edge.us:                                   ; preds = %19
  %23 = tail call i64 @fwrite(ptr noundef %11, i64 noundef 12, i64 noundef %8, ptr noundef nonnull %5)
  %24 = trunc i64 %23 to i32
  %.not36.us = icmp eq i32 %1, %24
  %indvars.iv.next = add nuw nsw i64 %indvars.iv, 1
  %25 = icmp samesign ult i64 %indvars.iv.next, %14
  %or.cond = select i1 %.not36.us, i1 %25, i1 false
  br i1 %or.cond, label %.lr.ph.us, label %._crit_edge43

.lr.ph42.split:                                   ; preds = %.lr.ph42, %.lr.ph42.split
  %.03140 = phi i32 [ %28, %.lr.ph42.split ], [ 0, %.lr.ph42 ]
  %26 = tail call i64 @fwrite(ptr noundef %11, i64 noundef 12, i64 noundef %8, ptr noundef nonnull %5)
  %27 = trunc i64 %26 to i32
  %.not36 = icmp eq i32 %1, %27
  %28 = add nuw nsw i32 %.03140, 1
  %29 = icmp slt i32 %28, %2
  %or.cond45 = select i1 %.not36, i1 %29, i1 false
  br i1 %or.cond45, label %.lr.ph42.split, label %._crit_edge43

._crit_edge43:                                    ; preds = %.lr.ph42.split, %._crit_edge.us, %6
  tail call void @free(ptr noundef %11) #10
  %30 = tail call i32 @fclose(ptr noundef nonnull %5)
  br label %31

31:                                               ; preds = %._crit_edge43, %4
  ret void
}